target datalayout = "e-m:e-p270:32:32-p271:32:32-p272:64:64-i64:64-i128:128-f80:128-n8:16:32:64-S128"
target triple = "x86_64-pc-linux-gnu"

%union.pthread_mutex_t = type { %struct.__pthread_mutex_s }
%struct.__pthread_mutex_s = type { i32, i32, i32, i32, i32, i16, i16, %struct.__pthread_internal_list }
%struct.__pthread_internal_list = type { ptr, ptr }
%"class.std::__mutex_base" = type { %union.pthread_mutex_t }
%class.anon.171 = type { ptr, ptr, ptr, ptr, i32, ptr, ptr, i64, i64, i64, ptr }
%"class.std::unique_lock" = type <{ ptr, i8, [7 x i8] }>

; Function Attrs: inlinehint mustprogress nounwind uwtable
define internal noundef i32 @_ZL18__gthread_active_pv() #8 {
  ret i32 1
}

; Function Attrs: inlinehint mustprogress uwtable
define internal noundef i32 @_ZL20__gthread_mutex_lockP15pthread_mutex_t(ptr noundef %0) #9 {
  %2 = alloca i32, align 4
  %3 = alloca ptr, align 8
  store ptr %0, ptr %3, align 8, !tbaa !196
  %4 = call noundef i32 @_ZL18__gthread_active_pv()
  %5 = icmp ne i32 %4, 0
  br i1 %5, label %6, label %9

6:                                                ; preds = %1
  %7 = load ptr, ptr %3, align 8, !tbaa !196
  %8 = call i32 @pthread_mutex_lock(ptr noundef %7) #20
  store i32 %8, ptr %2, align 4
  br label %10

9:                                                ; preds = %1
  store i32 0, ptr %2, align 4
  br label %10

10:                                               ; preds = %9, %6
  %11 = load i32, ptr %2, align 4
  ret i32 %11
}

; Function Attrs: inlinehint mustprogress nounwind uwtable
define internal noundef i32 @_ZL22__gthread_mutex_unlockP15pthread_mutex_t(ptr noundef %0) #8 {
  %2 = alloca i32, align 4
  %3 = alloca ptr, align 8
  store ptr %0, ptr %3, align 8, !tbaa !196
  %4 = call noundef i32 @_ZL18__gthread_active_pv()
  %5 = icmp ne i32 %4, 0
  br i1 %5, label %6, label %9

6:                                                ; preds = %1
  %7 = load ptr, ptr %3, align 8, !tbaa !196
  %8 = call i32 @pthread_mutex_unlock(ptr noundef %7) #20
  store i32 %8, ptr %2, align 4
  br label %10

9:                                                ; preds = %1
  store i32 0, ptr %2, align 4
  br label %10

10:                                               ; preds = %9, %6
  %11 = load i32, ptr %2, align 4
  ret i32 %11
}

; Function Attrs: mustprogress uwtable
define linkonce_odr void @_ZNSt5mutex4lockEv(ptr noundef nonnull align 8 dereferenceable(40) %0) #2 comdat align 2 {
  %2 = alloca ptr, align 8
  %3 = alloca i32, align 4
  store ptr %0, ptr %2, align 8, !tbaa !328
  %4 = load ptr, ptr %2, align 8
  call void @llvm.lifetime.start.p0(i64 4, ptr %3) #20
  %5 = getelementptr inbounds nuw %"class.std::__mutex_base", ptr %4, i32 0, i32 0
  %6 = call noundef i32 @_ZL20__gthread_mutex_lockP15pthread_mutex_t(ptr noundef %5)
  store i32 %6, ptr %3, align 4, !tbaa !25
  %7 = load i32, ptr %3, align 4, !tbaa !25
  %8 = icmp ne i32 %7, 0
  br i1 %8, label %9, label %11

9:                                                ; preds = %1
  %10 = load i32, ptr %3, align 4, !tbaa !25
  call void @_ZSt20__throw_system_errori(i32 noundef %10) #22
  unreachable

11:                                               ; preds = %1
  call void @llvm.lifetime.end.p0(i64 4, ptr %3) #20
  ret void
}

; Function Attrs: noinline noreturn nounwind uwtable
define linkonce_odr hidden void @__clang_call_terminate(ptr noundef %0) #6 comdat {
  %2 = call ptr @__cxa_begin_catch(ptr %0) #20
  call void @_ZSt9terminatev() #21
  unreachable
}

; Function Attrs: mustprogress uwtable
define linkonce_odr void @_ZNSt5mutex6unlockEv(ptr noundef nonnull align 8 dereferenceable(40) %0) #2 comdat align 2 {
  %2 = alloca ptr, align 8
  store ptr %0, ptr %2, align 8, !tbaa !328
  %3 = load ptr, ptr %2, align 8
  %4 = getelementptr inbounds nuw %"class.std::__mutex_base", ptr %3, i32 0, i32 0
  %5 = call noundef i32 @_ZL22__gthread_mutex_unlockP15pthread_mutex_t(ptr noundef %4)
  ret void
}

; Function Attrs: mustprogress uwtable
define linkonce_odr void @_ZNSt11unique_lockISt5mutexE4lockEv(ptr noundef nonnull align 8 dereferenceable(9) %0) #2 comdat align 2 {
  %2 = alloca ptr, align 8
  store ptr %0, ptr %2, align 8, !tbaa !691
  %3 = load ptr, ptr %2, align 8
  %4 = getelementptr inbounds nuw %"class.std::unique_lock", ptr %3, i32 0, i32 0
  %5 = load ptr, ptr %4, align 8, !tbaa !693
  %6 = icmp ne ptr %5, null
  br i1 %6, label %8, label %7

7:                                                ; preds = %1
  call void @_ZSt20__throw_system_errori(i32 noundef 1) #22
  unreachable

8:                                                ; preds = %1
  %9 = getelementptr inbounds nuw %"class.std::unique_lock", ptr %3, i32 0, i32 1
  %10 = load i8, ptr %9, align 8, !tbaa !695, !range !33, !noundef !34
  %11 = trunc i8 %10 to i1
  br i1 %11, label %12, label %13

12:                                               ; preds = %8
  call void @_ZSt20__throw_system_errori(i32 noundef 35) #22
  unreachable

13:                                               ; preds = %8
  %14 = getelementptr inbounds nuw %"class.std::unique_lock", ptr %3, i32 0, i32 0
  %15 = load ptr, ptr %14, align 8, !tbaa !693
  call void @_ZNSt5mutex4lockEv(ptr noundef nonnull align 8 dereferenceable(40) %15)
  %16 = getelementptr inbounds nuw %"class.std::unique_lock", ptr %3, i32 0, i32 1
  store i8 1, ptr %16, align 8, !tbaa !695
  br label %17

17:                                               ; preds = %13
  br label %18

18:                                               ; preds = %17
  ret void
}

; Function Attrs: mustprogress nounwind uwtable
define linkonce_odr void @_ZNSt11unique_lockISt5mutexED2Ev(ptr noundef nonnull align 8 dereferenceable(9) %0) unnamed_addr #0 comdat align 2 personality ptr @__gxx_personality_v0 {
  %2 = alloca ptr, align 8
  store ptr %0, ptr %2, align 8, !tbaa !691
  %3 = load ptr, ptr %2, align 8
  %4 = getelementptr inbounds nuw %"class.std::unique_lock", ptr %3, i32 0, i32 1
  %5 = load i8, ptr %4, align 8, !tbaa !695, !range !33, !noundef !34
  %6 = trunc i8 %5 to i1
  br i1 %6, label %7, label %9

7:                                                ; preds = %1
  invoke void @_ZNSt11unique_lockISt5mutexE6unlockEv(ptr noundef nonnull align 8 dereferenceable(9) %3)
          to label %8 unwind label %10

8:                                                ; preds = %7
  br label %9

9:                                                ; preds = %8, %1
  ret void

10:                                               ; preds = %7
  %11 = landingpad { ptr, i32 }
          catch ptr null
  %12 = extractvalue { ptr, i32 } %11, 0
  call void @__clang_call_terminate(ptr %12) #21
  unreachable
}

; Function Attrs: inlinehint mustprogress nounwind uwtable
define linkonce_odr noundef nonnull align 8 dereferenceable(8) ptr @_ZSt3minIlERKT_S2_S2_(ptr noundef nonnull align 8 dereferenceable(8) %0, ptr noundef nonnull align 8 dereferenceable(8) %1) #8 comdat {
  %3 = alloca ptr, align 8
  %4 = alloca ptr, align 8
  %5 = alloca ptr, align 8
  store ptr %0, ptr %4, align 8, !tbaa !326
  store ptr %1, ptr %5, align 8, !tbaa !326
  %6 = load ptr, ptr %5, align 8, !tbaa !326
  %7 = load i64, ptr %6, align 8, !tbaa !98
  %8 = load ptr, ptr %4, align 8, !tbaa !326
  %9 = load i64, ptr %8, align 8, !tbaa !98
  %10 = icmp slt i64 %7, %9
  br i1 %10, label %11, label %13

11:                                               ; preds = %2
  %12 = load ptr, ptr %5, align 8, !tbaa !326
  store ptr %12, ptr %3, align 8
  br label %15

13:                                               ; preds = %2
  %14 = load ptr, ptr %4, align 8, !tbaa !326
  store ptr %14, ptr %3, align 8
  br label %15

15:                                               ; preds = %13, %11
  %16 = load ptr, ptr %3, align 8
  ret ptr %16
}

; Function Attrs: mustprogress uwtable
define linkonce_odr void @_ZNSt11unique_lockISt5mutexE6unlockEv(ptr noundef nonnull align 8 dereferenceable(9) %0) #2 comdat align 2 {
  %2 = alloca ptr, align 8
  store ptr %0, ptr %2, align 8, !tbaa !691
  %3 = load ptr, ptr %2, align 8
  %4 = getelementptr inbounds nuw %"class.std::unique_lock", ptr %3, i32 0, i32 1
  %5 = load i8, ptr %4, align 8, !tbaa !695, !range !33, !noundef !34
  %6 = trunc i8 %5 to i1
  br i1 %6, label %8, label %7

7:                                                ; preds = %1
  call void @_ZSt20__throw_system_errori(i32 noundef 1) #22
  unreachable

8:                                                ; preds = %1
  %9 = getelementptr inbounds nuw %"class.std::unique_lock", ptr %3, i32 0, i32 0
  %10 = load ptr, ptr %9, align 8, !tbaa !693
  %11 = icmp ne ptr %10, null
  br i1 %11, label %12, label %16

12:                                               ; preds = %8
  %13 = getelementptr inbounds nuw %"class.std::unique_lock", ptr %3, i32 0, i32 0
  %14 = load ptr, ptr %13, align 8, !tbaa !693
  call void @_ZNSt5mutex6unlockEv(ptr noundef nonnull align 8 dereferenceable(40) %14)
  %15 = getelementptr inbounds nuw %"class.std::unique_lock", ptr %3, i32 0, i32 1
  store i8 0, ptr %15, align 8, !tbaa !695
  br label %16

16:                                               ; preds = %12, %8
  br label %17

17:                                               ; preds = %16
  ret void
}

; Function Attrs: mustprogress uwtable
define linkonce_odr void @_ZNSt11unique_lockISt5mutexEC2ERS0_(ptr noundef nonnull align 8 dereferenceable(9) %0, ptr noundef nonnull align 8 dereferenceable(40) %1) unnamed_addr #2 comdat align 2 {
  %3 = alloca ptr, align 8
  %4 = alloca ptr, align 8
  store ptr %0, ptr %3, align 8, !tbaa !691
  store ptr %1, ptr %4, align 8, !tbaa !328
  %5 = load ptr, ptr %3, align 8
  %6 = getelementptr inbounds nuw %"class.std::unique_lock", ptr %5, i32 0, i32 0
  %7 = load ptr, ptr %4, align 8, !tbaa !328
  store ptr %7, ptr %6, align 8, !tbaa !693
  %8 = getelementptr inbounds nuw %"class.std::unique_lock", ptr %5, i32 0, i32 1
  store i8 0, ptr %8, align 8, !tbaa !695
  call void @_ZNSt11unique_lockISt5mutexE4lockEv(ptr noundef nonnull align 8 dereferenceable(9) %5)
  %9 = getelementptr inbounds nuw %"class.std::unique_lock", ptr %5, i32 0, i32 1
  store i8 1, ptr %9, align 8, !tbaa !695
  ret void
}

; Function Attrs: inlinehint mustprogress uwtable
define internal void @"_ZZL26llama_tensor_quantize_impl9ggml_typePKfPvlllS1_RSt6vectorISt6threadSaIS4_EEiENK3$_0clEv"(ptr noundef nonnull align 8 dereferenceable(88) %0) #9 align 2 personality ptr @__gxx_personality_v0 {
  %2 = alloca ptr, align 8
  %3 = alloca i64, align 8
  %4 = alloca i64, align 8
  %5 = alloca %"class.std::unique_lock", align 8
  %6 = alloca i64, align 8
  %7 = alloca i32, align 4
  %8 = alloca ptr, align 8
  %9 = alloca i32, align 4
  %10 = alloca i64, align 8
  %11 = alloca i64, align 8
  %12 = alloca i64, align 8
  %13 = alloca i64, align 8
  %14 = alloca ptr, align 8
  %15 = alloca %"class.std::unique_lock", align 8
  store ptr %0, ptr %2, align 8, !tbaa !196
  %16 = load ptr, ptr %2, align 8
  call void @llvm.lifetime.start.p0(i64 8, ptr %3) #20
  %17 = getelementptr inbounds nuw %class.anon.171, ptr %16, i32 0, i32 7
  %18 = load i64, ptr %17, align 8, !tbaa !336
  %19 = getelementptr inbounds nuw %class.anon.171, ptr %16, i32 0, i32 9
  %20 = load i64, ptr %19, align 8, !tbaa !338
  %21 = sdiv i64 %18, %20
  store i64 %21, ptr %3, align 8, !tbaa !98
  call void @llvm.lifetime.start.p0(i64 8, ptr %4) #20
  store i64 0, ptr %4, align 8, !tbaa !98
  br label %22

22:                                               ; preds = %124, %1
  br label %23

23:                                               ; preds = %22
  call void @llvm.lifetime.start.p0(i64 16, ptr %5) #20
  %24 = getelementptr inbounds nuw %class.anon.171, ptr %16, i32 0, i32 0
  %25 = load ptr, ptr %24, align 8, !tbaa !669
  call void @_ZNSt11unique_lockISt5mutexEC2ERS0_(ptr noundef nonnull align 8 dereferenceable(9) %5, ptr noundef nonnull align 8 dereferenceable(40) %25)
  call void @llvm.lifetime.start.p0(i64 8, ptr %6) #20
  %26 = getelementptr inbounds nuw %class.anon.171, ptr %16, i32 0, i32 1
  %27 = load ptr, ptr %26, align 8, !tbaa !670
  %28 = load i64, ptr %27, align 8, !tbaa !98
  store i64 %28, ptr %6, align 8, !tbaa !98
  %29 = load i64, ptr %3, align 8, !tbaa !98
  %30 = getelementptr inbounds nuw %class.anon.171, ptr %16, i32 0, i32 1
  %31 = load ptr, ptr %30, align 8, !tbaa !670
  %32 = load i64, ptr %31, align 8, !tbaa !98
  %33 = add nsw i64 %32, %29
  store i64 %33, ptr %31, align 8, !tbaa !98
  %34 = load i64, ptr %6, align 8, !tbaa !98
  %35 = getelementptr inbounds nuw %class.anon.171, ptr %16, i32 0, i32 8
  %36 = load i64, ptr %35, align 8, !tbaa !337
  %37 = icmp sge i64 %34, %36
  br i1 %37, label %38, label %48

38:                                               ; preds = %23
  %39 = load i64, ptr %4, align 8, !tbaa !98
  %40 = icmp ugt i64 %39, 0
  br i1 %40, label %41, label %47

41:                                               ; preds = %38
  %42 = load i64, ptr %4, align 8, !tbaa !98
  %43 = getelementptr inbounds nuw %class.anon.171, ptr %16, i32 0, i32 2
  %44 = load ptr, ptr %43, align 8, !tbaa !671
  %45 = load i64, ptr %44, align 8, !tbaa !98
  %46 = add i64 %45, %42
  store i64 %46, ptr %44, align 8, !tbaa !98
  br label %47

47:                                               ; preds = %41, %38
  store i32 3, ptr %7, align 4
  br label %122

48:                                               ; preds = %23
  invoke void @_ZNSt11unique_lockISt5mutexE6unlockEv(ptr noundef nonnull align 8 dereferenceable(9) %5)
          to label %49 unwind label %100

49:                                               ; preds = %48
  call void @llvm.lifetime.start.p0(i64 8, ptr %10) #20
  call void @llvm.lifetime.start.p0(i64 8, ptr %11) #20
  %50 = getelementptr inbounds nuw %class.anon.171, ptr %16, i32 0, i32 8
  %51 = load i64, ptr %50, align 8, !tbaa !337
  %52 = load i64, ptr %6, align 8, !tbaa !98
  %53 = sub nsw i64 %51, %52
  store i64 %53, ptr %11, align 8, !tbaa !98
  %54 = call noundef nonnull align 8 dereferenceable(8) ptr @_ZSt3minIlERKT_S2_S2_(ptr noundef nonnull align 8 dereferenceable(8) %11, ptr noundef nonnull align 8 dereferenceable(8) %3)
  %55 = load i64, ptr %54, align 8, !tbaa !98
  call void @llvm.lifetime.end.p0(i64 8, ptr %11) #20
  store i64 %55, ptr %10, align 8, !tbaa !98
  call void @llvm.lifetime.start.p0(i64 8, ptr %12) #20
  %56 = getelementptr inbounds nuw %class.anon.171, ptr %16, i32 0, i32 4
  %57 = load i32, ptr %56, align 8, !tbaa !332
  %58 = getelementptr inbounds nuw %class.anon.171, ptr %16, i32 0, i32 5
  %59 = load ptr, ptr %58, align 8, !tbaa !334
  %60 = getelementptr inbounds nuw %class.anon.171, ptr %16, i32 0, i32 6
  %61 = load ptr, ptr %60, align 8, !tbaa !335
  %62 = load i64, ptr %6, align 8, !tbaa !98
  %63 = getelementptr inbounds nuw %class.anon.171, ptr %16, i32 0, i32 9
  %64 = load i64, ptr %63, align 8, !tbaa !338
  %65 = mul nsw i64 %62, %64
  %66 = load i64, ptr %10, align 8, !tbaa !98
  %67 = getelementptr inbounds nuw %class.anon.171, ptr %16, i32 0, i32 9
  %68 = load i64, ptr %67, align 8, !tbaa !338
  %69 = getelementptr inbounds nuw %class.anon.171, ptr %16, i32 0, i32 10
  %70 = load ptr, ptr %69, align 8, !tbaa !339
  %71 = invoke i64 @ggml_quantize_chunk(i32 noundef %57, ptr noundef %59, ptr noundef %61, i64 noundef %65, i64 noundef %66, i64 noundef %68, ptr noundef %70)
          to label %72 unwind label %104

72:                                               ; preds = %49
  store i64 %71, ptr %12, align 8, !tbaa !98
  %73 = load i64, ptr %12, align 8, !tbaa !98
  %74 = load i64, ptr %4, align 8, !tbaa !98
  %75 = add i64 %74, %73
  store i64 %75, ptr %4, align 8, !tbaa !98
  call void @llvm.lifetime.start.p0(i64 8, ptr %13) #20
  %76 = getelementptr inbounds nuw %class.anon.171, ptr %16, i32 0, i32 4
  %77 = load i32, ptr %76, align 8, !tbaa !332
  %78 = getelementptr inbounds nuw %class.anon.171, ptr %16, i32 0, i32 9
  %79 = load i64, ptr %78, align 8, !tbaa !338
  %80 = invoke i64 @ggml_row_size(i32 noundef %77, i64 noundef %79)
          to label %81 unwind label %108

81:                                               ; preds = %72
  store i64 %80, ptr %13, align 8, !tbaa !98
  call void @llvm.lifetime.start.p0(i64 8, ptr %14) #20
  %82 = getelementptr inbounds nuw %class.anon.171, ptr %16, i32 0, i32 6
  %83 = load ptr, ptr %82, align 8, !tbaa !335
  %84 = load i64, ptr %6, align 8, !tbaa !98
  %85 = load i64, ptr %13, align 8, !tbaa !98
  %86 = mul i64 %84, %85
  %87 = getelementptr inbounds nuw i8, ptr %83, i64 %86
  store ptr %87, ptr %14, align 8, !tbaa !196
  %88 = getelementptr inbounds nuw %class.anon.171, ptr %16, i32 0, i32 4
  %89 = load i32, ptr %88, align 8, !tbaa !332
  %90 = load ptr, ptr %14, align 8, !tbaa !196
  %91 = load i64, ptr %12, align 8, !tbaa !98
  %92 = invoke zeroext i1 @ggml_validate_row_data(i32 noundef %89, ptr noundef %90, i64 noundef %91)
          to label %93 unwind label %112

93:                                               ; preds = %81
  br i1 %92, label %120, label %94

94:                                               ; preds = %93
  call void @llvm.lifetime.start.p0(i64 16, ptr %15) #20
  %95 = getelementptr inbounds nuw %class.anon.171, ptr %16, i32 0, i32 0
  %96 = load ptr, ptr %95, align 8, !tbaa !669
  invoke void @_ZNSt11unique_lockISt5mutexEC2ERS0_(ptr noundef nonnull align 8 dereferenceable(9) %15, ptr noundef nonnull align 8 dereferenceable(40) %96)
          to label %97 unwind label %116

97:                                               ; preds = %94
  %98 = getelementptr inbounds nuw %class.anon.171, ptr %16, i32 0, i32 3
  %99 = load ptr, ptr %98, align 8, !tbaa !672
  store i8 0, ptr %99, align 1, !tbaa !26
  store i32 3, ptr %7, align 4
  call void @_ZNSt11unique_lockISt5mutexED2Ev(ptr noundef nonnull align 8 dereferenceable(9) %15) #20
  call void @llvm.lifetime.end.p0(i64 16, ptr %15) #20
  br label %121

100:                                              ; preds = %48
  %101 = landingpad { ptr, i32 }
          cleanup
  %102 = extractvalue { ptr, i32 } %101, 0
  store ptr %102, ptr %8, align 8
  %103 = extractvalue { ptr, i32 } %101, 1
  store i32 %103, ptr %9, align 4
  br label %128

104:                                              ; preds = %49
  %105 = landingpad { ptr, i32 }
          cleanup
  %106 = extractvalue { ptr, i32 } %105, 0
  store ptr %106, ptr %8, align 8
  %107 = extractvalue { ptr, i32 } %105, 1
  store i32 %107, ptr %9, align 4
  br label %127

108:                                              ; preds = %72
  %109 = landingpad { ptr, i32 }
          cleanup
  %110 = extractvalue { ptr, i32 } %109, 0
  store ptr %110, ptr %8, align 8
  %111 = extractvalue { ptr, i32 } %109, 1
  store i32 %111, ptr %9, align 4
  br label %126

112:                                              ; preds = %81
  %113 = landingpad { ptr, i32 }
          cleanup
  %114 = extractvalue { ptr, i32 } %113, 0
  store ptr %114, ptr %8, align 8
  %115 = extractvalue { ptr, i32 } %113, 1
  store i32 %115, ptr %9, align 4
  br label %125

116:                                              ; preds = %94
  %117 = landingpad { ptr, i32 }
          cleanup
  %118 = extractvalue { ptr, i32 } %117, 0
  store ptr %118, ptr %8, align 8
  %119 = extractvalue { ptr, i32 } %117, 1
  store i32 %119, ptr %9, align 4
  call void @llvm.lifetime.end.p0(i64 16, ptr %15) #20
  br label %125

120:                                              ; preds = %93
  store i32 0, ptr %7, align 4
  br label %121

121:                                              ; preds = %120, %97
  call void @llvm.lifetime.end.p0(i64 8, ptr %14) #20
  call void @llvm.lifetime.end.p0(i64 8, ptr %13) #20
  call void @llvm.lifetime.end.p0(i64 8, ptr %12) #20
  call void @llvm.lifetime.end.p0(i64 8, ptr %10) #20
  br label %122

122:                                              ; preds = %121, %47
  call void @llvm.lifetime.end.p0(i64 8, ptr %6) #20
  call void @_ZNSt11unique_lockISt5mutexED2Ev(ptr noundef nonnull align 8 dereferenceable(9) %5) #20
  call void @llvm.lifetime.end.p0(i64 16, ptr %5) #20
  %123 = load i32, ptr %7, align 4
  switch i32 %123, label %135 [
    i32 0, label %124
    i32 3, label %129
  ]

124:                                              ; preds = %122
  br label %22, !llvm.loop !673

125:                                              ; preds = %116, %112
  call void @llvm.lifetime.end.p0(i64 8, ptr %14) #20
  br label %126

126:                                              ; preds = %125, %108
  call void @llvm.lifetime.end.p0(i64 8, ptr %13) #20
  br label %127

127:                                              ; preds = %126, %104
  call void @llvm.lifetime.end.p0(i64 8, ptr %12) #20
  call void @llvm.lifetime.end.p0(i64 8, ptr %10) #20
  br label %128

128:                                              ; preds = %127, %100
  call void @llvm.lifetime.end.p0(i64 8, ptr %6) #20
  call void @_ZNSt11unique_lockISt5mutexED2Ev(ptr noundef nonnull align 8 dereferenceable(9) %5) #20
  call void @llvm.lifetime.end.p0(i64 16, ptr %5) #20
  call void @llvm.lifetime.end.p0(i64 8, ptr %4) #20
  call void @llvm.lifetime.end.p0(i64 8, ptr %3) #20
  br label %130

129:                                              ; preds = %122
  call void @llvm.lifetime.end.p0(i64 8, ptr %4) #20
  call void @llvm.lifetime.end.p0(i64 8, ptr %3) #20
  ret void

130:                                              ; preds = %128
  %131 = load ptr, ptr %8, align 8
  %132 = load i32, ptr %9, align 4
  %133 = insertvalue { ptr, i32 } poison, ptr %131, 0
  %134 = insertvalue { ptr, i32 } %133, i32 %132, 1
  resume { ptr, i32 } %134

135:                                              ; preds = %122
  unreachable
}