; Function Attrs: inlinehint mustprogress uwtable
define internal fastcc void @"_ZZL26llama_tensor_quantize_impl9ggml_typePKfPvlllS1_RSt6vectorISt6threadSaIS4_EEiENK3$_0clEv"(ptr noundef nonnull readonly align 8 captures(none) dereferenceable(88) %0) unnamed_addr #11 align 2 personality ptr @__gxx_personality_v0 {
  %2 = getelementptr inbounds nuw i8, ptr %0, i64 56
  %3 = load i64, ptr %2, align 8, !tbaa !354
  %4 = getelementptr inbounds nuw i8, ptr %0, i64 72
  %5 = load i64, ptr %4, align 8, !tbaa !356
  %6 = sdiv i64 %3, %5
  %7 = getelementptr inbounds nuw i8, ptr %0, i64 8
  %8 = getelementptr inbounds nuw i8, ptr %0, i64 64
  %9 = getelementptr inbounds nuw i8, ptr %0, i64 32
  %10 = getelementptr inbounds nuw i8, ptr %0, i64 40
  %11 = getelementptr inbounds nuw i8, ptr %0, i64 48
  %12 = getelementptr inbounds nuw i8, ptr %0, i64 80
  br label %_ZNSt11unique_lockISt5mutexED2Ev.exit33

_ZNSt11unique_lockISt5mutexED2Ev.exit33:          ; preds = %26, %1
  %.0 = phi i64 [ 0, %1 ], [ %37, %26 ]
  %13 = load ptr, ptr %0, align 8, !tbaa !357
  %14 = tail call noundef i32 @pthread_mutex_lock(ptr noundef nonnull align 8 dereferenceable(40) %13) #26
  %.not.i.i.i = icmp eq i32 %14, 0
  br i1 %.not.i.i.i, label %_ZNSt11unique_lockISt5mutexEC2ERS0_.exit, label %15

15:                                               ; preds = %_ZNSt11unique_lockISt5mutexED2Ev.exit33
  tail call void @_ZSt20__throw_system_errori(i32 noundef %14) #27
  unreachable

_ZNSt11unique_lockISt5mutexEC2ERS0_.exit:         ; preds = %_ZNSt11unique_lockISt5mutexED2Ev.exit33
  %16 = load ptr, ptr %7, align 8, !tbaa !358
  %17 = load i64, ptr %16, align 8, !tbaa !9
  %18 = add nsw i64 %17, %6
  store i64 %18, ptr %16, align 8, !tbaa !9
  %19 = load i64, ptr %8, align 8, !tbaa !359
  %.not = icmp slt i64 %17, %19
  br i1 %.not, label %26, label %20

20:                                               ; preds = %_ZNSt11unique_lockISt5mutexEC2ERS0_.exit
  %.not28 = icmp eq i64 %.0, 0
  br i1 %.not28, label %51, label %21

21:                                               ; preds = %20
  %22 = getelementptr inbounds nuw i8, ptr %0, i64 16
  %23 = load ptr, ptr %22, align 8, !tbaa !360
  %24 = load i64, ptr %23, align 8, !tbaa !9
  %25 = add i64 %24, %.0
  store i64 %25, ptr %23, align 8, !tbaa !9
  br label %51

26:                                               ; preds = %_ZNSt11unique_lockISt5mutexEC2ERS0_.exit
  %27 = tail call noundef i32 @pthread_mutex_unlock(ptr noundef nonnull align 8 dereferenceable(40) %13) #26
  %28 = load i64, ptr %8, align 8, !tbaa !359
  %29 = sub nsw i64 %28, %17
  %.sroa.speculated = tail call i64 @llvm.smin.i64(i64 %6, i64 %29)
  %30 = load i32, ptr %9, align 8, !tbaa !361
  %31 = load ptr, ptr %10, align 8, !tbaa !362
  %32 = load ptr, ptr %11, align 8, !tbaa !363
  %33 = load i64, ptr %4, align 8, !tbaa !356
  %34 = mul nsw i64 %33, %17
  %35 = load ptr, ptr %12, align 8, !tbaa !364
  %36 = tail call i64 @ggml_quantize_chunk(i32 noundef %30, ptr noundef %31, ptr noundef %32, i64 noundef %34, i64 noundef %.sroa.speculated, i64 noundef %33, ptr noundef %35)
  %37 = add i64 %36, %.0
  %38 = load i32, ptr %9, align 8, !tbaa !361
  %39 = load i64, ptr %4, align 8, !tbaa !356
  %40 = tail call i64 @ggml_row_size(i32 noundef %38, i64 noundef %39)
  %41 = load ptr, ptr %11, align 8, !tbaa !363
  %42 = mul i64 %40, %17
  %43 = getelementptr inbounds nuw i8, ptr %41, i64 %42
  %44 = load i32, ptr %9, align 8, !tbaa !361
  %45 = tail call zeroext i1 @ggml_validate_row_data(i32 noundef %44, ptr noundef %43, i64 noundef %36)
  br i1 %45, label %_ZNSt11unique_lockISt5mutexED2Ev.exit33, label %46

46:                                               ; preds = %26
  %47 = load ptr, ptr %0, align 8, !tbaa !357
  %48 = tail call noundef i32 @pthread_mutex_lock(ptr noundef nonnull align 8 dereferenceable(40) %47) #26
  %.not.i.i.i29 = icmp eq i32 %48, 0
  br i1 %.not.i.i.i29, label %_ZNSt11unique_lockISt5mutexED2Ev.exit, label %.noexc30

.noexc30:                                         ; preds = %46
  tail call void @_ZSt20__throw_system_errori(i32 noundef %48) #27
  unreachable

_ZNSt11unique_lockISt5mutexED2Ev.exit:            ; preds = %46
  %49 = getelementptr inbounds nuw i8, ptr %0, i64 24
  %50 = load ptr, ptr %49, align 8, !tbaa !365
  store i8 0, ptr %50, align 1, !tbaa !267
  br label %51

51:                                               ; preds = %20, %21, %_ZNSt11unique_lockISt5mutexED2Ev.exit
  %.lcssa72.sink = phi ptr [ %47, %_ZNSt11unique_lockISt5mutexED2Ev.exit ], [ %13, %21 ], [ %13, %20 ]
  %52 = tail call noundef i32 @pthread_mutex_unlock(ptr noundef nonnull align 8 dereferenceable(40) %.lcssa72.sink) #26
  ret void
}